(dp0
S'insane'
p1
(iOpinionWord
OpinionWord
p2
(dp3
S'word'
p4
S'insane'
p5
sS'sentiments_modified'
p6
c__builtin__
set
p7
((lp8
tp9
Rp10
sS'features_modified'
p11
g7
((lp12
tp13
Rp14
sS'word_count'
p15
I1
sS'frequency'
p16
I0
sS'ranking_score'
p17
I0
sbsS'superior'
p18
(iOpinionWord
OpinionWord
p19
(dp20
g4
S'superior'
p21
sg6
g10
sg11
g7
((lp22
tp23
Rp24
sg15
I1
sg16
I0
sg17
I0
sbsS'modern'
p25
(iOpinionWord
OpinionWord
p26
(dp27
g4
S'modern'
p28
sg6
g10
sg11
g7
((lp29
tp30
Rp31
sg15
I1
sg16
I0
sg17
I0
sbsS'replaceable'
p32
(iOpinionWord
OpinionWord
p33
(dp34
g4
S'replaceable'
p35
sg6
g10
sg11
g7
((lp36
tp37
Rp38
sg15
I1
sg16
I0
sg17
I0
sbsS'ideal'
p39
(iOpinionWord
OpinionWord
p40
(dp41
g4
S'ideal'
p42
sg6
g10
sg11
g7
((lp43
tp44
Rp45
sg15
I1
sg16
I0
sg17
I0
sbsS'terrible'
p46
(iOpinionWord
OpinionWord
p47
(dp48
g4
S'terrible'
p49
sg6
g10
sg11
g7
((lp50
tp51
Rp52
sg15
I1
sg16
I0
sg17
I0
sbsS'disappointing'
p53
(iOpinionWord
OpinionWord
p54
(dp55
g4
S'disappointing'
p56
sg6
g10
sg11
g7
((lp57
tp58
Rp59
sg15
I1
sg16
I0
sg17
I0
sbsS'beautiful'
p60
(iOpinionWord
OpinionWord
p61
(dp62
g4
S'beautiful'
p63
sg6
g10
sg11
g7
((lp64
tp65
Rp66
sg15
I1
sg16
I0
sg17
I0
sbsS'moot'
p67
(iOpinionWord
OpinionWord
p68
(dp69
g4
S'moot'
p70
sg6
g10
sg11
g7
((lp71
tp72
Rp73
sg15
I1
sg16
I0
sg17
I0
sbsS'horrible'
p74
(iOpinionWord
OpinionWord
p75
(dp76
g4
S'horrible'
p77
sg6
g10
sg11
g7
((lp78
tp79
Rp80
sg15
I1
sg16
I0
sg17
I0
sbsS'disturbing'
p81
(iOpinionWord
OpinionWord
p82
(dp83
g4
S'disturbing'
p84
sg6
g10
sg11
g7
((lp85
tp86
Rp87
sg15
I1
sg16
I0
sg17
I0
sbsS'stylish'
p88
(iOpinionWord
OpinionWord
p89
(dp90
g4
S'stylish'
p91
sg6
g10
sg11
g7
((lp92
tp93
Rp94
sg15
I1
sg16
I0
sg17
I0
sbsS'disappointed'
p95
(iOpinionWord
OpinionWord
p96
(dp97
g4
S'disappointed'
p98
sg6
g10
sg11
g7
((lp99
tp100
Rp101
sg15
I1
sg16
I0
sg17
I0
sbsS'worth'
p102
(iOpinionWord
OpinionWord
p103
(dp104
g4
S'worth'
p105
sg6
g10
sg11
g7
((lp106
tp107
Rp108
sg15
I1
sg16
I0
sg17
I0
sbs.